target datalayout = "e-m:e-p270:32:32-p271:32:32-p272:64:64-i64:64-i128:128-f80:128-n8:16:32:64-S128"
target triple = "x86_64-pc-linux-gnu"

%struct._zval_struct = type { %union._zend_value, %union.anon, %union.anon.2 }
%union._zend_value = type { i64 }
%union.anon = type { i32 }
%union.anon.2 = type { i32 }
%struct._zend_array = type { %struct._zend_refcounted_h, %union.anon.4, i32, %union.anon.6, i32, i32, i32, i32, i64, ptr }
%struct._zend_refcounted_h = type { i32, %union.anon.3 }
%union.anon.3 = type { i32 }
%union.anon.4 = type { i32 }
%union.anon.6 = type { ptr }
%struct._zend_execute_data = type { ptr, ptr, ptr, ptr, %struct._zval_struct, ptr, ptr, ptr, ptr }
%struct._Bucket = type { %struct._zval_struct, i64, ptr }

; Function Attrs: nounwind uwtable
define hidden void @zif_stream_get_filters(ptr noundef %0, ptr noundef %1) #0 {
  %3 = alloca ptr, align 8
  %4 = alloca i32, align 4
  %5 = alloca ptr, align 8
  %6 = alloca ptr, align 8
  %7 = alloca ptr, align 8
  %8 = alloca ptr, align 8
  %9 = alloca ptr, align 8
  %10 = alloca ptr, align 8
  %11 = alloca ptr, align 8
  %12 = alloca ptr, align 8
  %13 = alloca ptr, align 8
  %14 = alloca ptr, align 8
  %15 = alloca ptr, align 8
  %16 = alloca ptr, align 8
  store ptr %0, ptr %7, align 8
  store ptr %1, ptr %8, align 8
  br label %17

17:                                               ; preds = %2
  %18 = load ptr, ptr %7, align 8
  %19 = getelementptr inbounds %struct._zend_execute_data, ptr %18, i32 0, i32 4
  %20 = getelementptr inbounds %struct._zval_struct, ptr %19, i32 0, i32 2
  %21 = load i32, ptr %20, align 4
  %22 = icmp ne i32 %21, 0
  %23 = xor i1 %22, true
  %24 = xor i1 %23, true
  %25 = zext i1 %24 to i32
  %26 = sext i32 %25 to i64
  %27 = icmp ne i64 %26, 0
  br i1 %27, label %28, label %29

28:                                               ; preds = %17
  call void @zend_wrong_parameters_none_error()
  br label %119

29:                                               ; preds = %17
  br label %30

30:                                               ; preds = %29
  br label %31

31:                                               ; preds = %30
  %32 = call ptr @_zend_new_array_0()
  store ptr %32, ptr %11, align 8
  %33 = load ptr, ptr %8, align 8
  store ptr %33, ptr %12, align 8
  %34 = load ptr, ptr %11, align 8
  %35 = load ptr, ptr %12, align 8
  %36 = getelementptr inbounds %struct._zval_struct, ptr %35, i32 0, i32 0
  store ptr %34, ptr %36, align 8
  %37 = load ptr, ptr %12, align 8
  %38 = getelementptr inbounds %struct._zval_struct, ptr %37, i32 0, i32 1
  store i32 775, ptr %38, align 8
  br label %39

39:                                               ; preds = %31
  %40 = call ptr @_php_get_stream_filters_hash()
  store ptr %40, ptr %10, align 8
  %41 = load ptr, ptr %10, align 8
  %42 = icmp ne ptr %41, null
  br i1 %42, label %43, label %119

43:                                               ; preds = %39
  %44 = load ptr, ptr %10, align 8
  %45 = getelementptr inbounds %struct._zend_array, ptr %44, i32 0, i32 1
  %46 = load i32, ptr %45, align 8
  %47 = and i32 %46, 4
  %48 = icmp ne i32 %47, 0
  br i1 %48, label %119, label %49

49:                                               ; preds = %43
  br label %50

50:                                               ; preds = %49
  %51 = load ptr, ptr %10, align 8
  store ptr %51, ptr %13, align 8
  %52 = load ptr, ptr %13, align 8
  %53 = getelementptr inbounds %struct._zend_array, ptr %52, i32 0, i32 3
  %54 = load ptr, ptr %53, align 8
  %55 = getelementptr inbounds %struct._Bucket, ptr %54, i64 0
  store ptr %55, ptr %14, align 8
  %56 = load ptr, ptr %13, align 8
  %57 = getelementptr inbounds %struct._zend_array, ptr %56, i32 0, i32 3
  %58 = load ptr, ptr %57, align 8
  %59 = load ptr, ptr %13, align 8
  %60 = getelementptr inbounds %struct._zend_array, ptr %59, i32 0, i32 4
  %61 = load i32, ptr %60, align 8
  %62 = zext i32 %61 to i64
  %63 = getelementptr inbounds %struct._Bucket, ptr %58, i64 %62
  store ptr %63, ptr %15, align 8
  %64 = load ptr, ptr %13, align 8
  %65 = getelementptr inbounds %struct._zend_array, ptr %64, i32 0, i32 1
  %66 = load i32, ptr %65, align 8
  %67 = and i32 %66, 4
  %68 = icmp ne i32 %67, 0
  %69 = xor i1 %68, true
  call void @llvm.assume(i1 %69)
  br label %70

70:                                               ; preds = %114, %50
  %71 = load ptr, ptr %14, align 8
  %72 = load ptr, ptr %15, align 8
  %73 = icmp ne ptr %71, %72
  br i1 %73, label %74, label %117

74:                                               ; preds = %70
  %75 = load ptr, ptr %14, align 8
  %76 = getelementptr inbounds %struct._Bucket, ptr %75, i32 0, i32 0
  store ptr %76, ptr %16, align 8
  %77 = load ptr, ptr %16, align 8
  store ptr %77, ptr %6, align 8
  %78 = load ptr, ptr %6, align 8
  %79 = getelementptr inbounds %struct._zval_struct, ptr %78, i32 0, i32 1
  %80 = load i8, ptr %79, align 8
  %81 = zext i8 %80 to i32
  %82 = icmp eq i32 %81, 0
  %83 = xor i1 %82, true
  %84 = xor i1 %83, true
  %85 = zext i1 %84 to i32
  %86 = sext i32 %85 to i64
  %87 = icmp ne i64 %86, 0
  br i1 %87, label %88, label %89

88:                                               ; preds = %74
  br label %114

89:                                               ; preds = %74
  %90 = load ptr, ptr %14, align 8
  %91 = getelementptr inbounds %struct._Bucket, ptr %90, i32 0, i32 2
  %92 = load ptr, ptr %91, align 8
  store ptr %92, ptr %9, align 8
  %93 = load ptr, ptr %9, align 8
  %94 = icmp ne ptr %93, null
  br i1 %94, label %95, label %113

95:                                               ; preds = %89
  %96 = load ptr, ptr %8, align 8
  %97 = load ptr, ptr %9, align 8
  store ptr %97, ptr %5, align 8
  %98 = load ptr, ptr %5, align 8
  %99 = getelementptr inbounds %struct._zend_refcounted_h, ptr %98, i32 0, i32 1
  %100 = load i32, ptr %99, align 4
  store i32 %100, ptr %4, align 4
  %101 = load i32, ptr %4, align 4
  %102 = and i32 %101, 1008
  %103 = and i32 %102, 64
  %104 = icmp ne i32 %103, 0
  br i1 %104, label %110, label %105

105:                                              ; preds = %95
  %106 = load ptr, ptr %5, align 8
  store ptr %106, ptr %3, align 8
  %107 = load ptr, ptr %3, align 8
  %108 = load i32, ptr %107, align 4
  %109 = add i32 %108, 1
  store i32 %109, ptr %107, align 4
  br label %110

110:                                              ; preds = %105, %95
  %111 = load ptr, ptr %5, align 8
  %112 = call i32 @add_next_index_str(ptr noundef %96, ptr noundef %111)
  br label %113

113:                                              ; preds = %110, %89
  br label %114

114:                                              ; preds = %113, %88
  %115 = load ptr, ptr %14, align 8
  %116 = getelementptr inbounds %struct._Bucket, ptr %115, i32 1
  store ptr %116, ptr %14, align 8
  br label %70

117:                                              ; preds = %70
  br label %118

118:                                              ; preds = %117
  br label %119

119:                                              ; preds = %118, %43, %39, %28
  ret void
}