; Function Attrs: nounwind uwtable
define hidden void @zif_stream_get_filters(ptr nocapture noundef readonly %0, ptr noundef %1) local_unnamed_addr #0 {
  %3 = getelementptr inbounds i8, ptr %0, i64 44
  %4 = load i32, ptr %3, align 4
  %.not = icmp eq i32 %4, 0
  br i1 %.not, label %6, label %5

5:                                                ; preds = %2
  tail call void @zend_wrong_parameters_none_error() #11
  br label %.loopexit

6:                                                ; preds = %2
  %7 = tail call ptr @_zend_new_array_0() #11
  store ptr %7, ptr %1, align 8
  %8 = getelementptr inbounds i8, ptr %1, i64 8
  store i32 775, ptr %8, align 8
  %9 = tail call ptr @_php_get_stream_filters_hash() #11
  %.not28 = icmp eq ptr %9, null
  br i1 %.not28, label %.loopexit, label %10

10:                                               ; preds = %6
  %11 = getelementptr inbounds i8, ptr %9, i64 8
  %12 = load i32, ptr %11, align 8
  %13 = and i32 %12, 4
  %.not29 = icmp eq i32 %13, 0
  br i1 %.not29, label %14, label %.loopexit

14:                                               ; preds = %10
  %15 = getelementptr inbounds i8, ptr %9, i64 16
  %16 = load ptr, ptr %15, align 8
  %17 = getelementptr inbounds i8, ptr %9, i64 24
  %18 = load i32, ptr %17, align 8
  %19 = zext i32 %18 to i64
  %20 = getelementptr inbounds %struct._Bucket, ptr %16, i64 %19
  %.not3033 = icmp eq i32 %18, 0
  br i1 %.not3033, label %.loopexit, label %.lr.ph

.lr.ph:                                           ; preds = %14, %36
  %.034 = phi ptr [ %37, %36 ], [ %16, %14 ]
  %21 = getelementptr inbounds i8, ptr %.034, i64 8
  %22 = load i8, ptr %21, align 8
  %23 = icmp eq i8 %22, 0
  br i1 %23, label %36, label %24

24:                                               ; preds = %.lr.ph
  %25 = getelementptr inbounds i8, ptr %.034, i64 24
  %26 = load ptr, ptr %25, align 8
  %.not31 = icmp eq ptr %26, null
  br i1 %.not31, label %36, label %27

27:                                               ; preds = %24
  %28 = getelementptr inbounds i8, ptr %26, i64 4
  %29 = load i32, ptr %28, align 4
  %30 = and i32 %29, 64
  %.not32 = icmp eq i32 %30, 0
  br i1 %.not32, label %31, label %34

31:                                               ; preds = %27
  %32 = load i32, ptr %26, align 4
  %33 = add i32 %32, 1
  store i32 %33, ptr %26, align 4
  br label %34

34:                                               ; preds = %31, %27
  %35 = tail call i32 @add_next_index_str(ptr noundef nonnull %1, ptr noundef nonnull %26) #11
  br label %36

36:                                               ; preds = %24, %34, %.lr.ph
  %37 = getelementptr inbounds i8, ptr %.034, i64 32
  %.not30 = icmp eq ptr %37, %20
  br i1 %.not30, label %.loopexit, label %.lr.ph

.loopexit:                                        ; preds = %36, %14, %10, %6, %5
  ret void
}